target datalayout = "e-m:e-p270:32:32-p271:32:32-p272:64:64-i64:64-i128:128-f80:128-n8:16:32:64-S128"
target triple = "x86_64-pc-linux-gnu"

%struct.Type_ = type { i32, ptr, ptr, ptr, %union.anon, ptr, ptr, %union.anon.1 }
%union.anon = type { ptr }
%union.anon.1 = type { %struct.TypeFunction }
%struct.TypeFunction = type { ptr, ptr, ptr }
%union.SourceSpan = type { i64 }
%struct.Decl_ = type { ptr, ptr, %union.SourceSpan, i64, %union.anon.3, i32, %union.anon.4, i64, ptr, ptr, ptr, %union.anon.5 }
%union.anon.3 = type { ptr }
%union.anon.4 = type { i16 }
%union.anon.5 = type { %struct.FuncDecl }
%struct.FuncDecl = type { i32, [4 x i8], %struct.Signature_, i32, i32, %union.anon.12 }
%struct.Signature_ = type <{ %struct.CalleeAttributes, i16, i8, i32, i32, [4 x i8], ptr }>
%struct.CalleeAttributes = type { i8 }
%union.anon.12 = type { %struct.anon.13 }
%struct.anon.13 = type { i16, %union.anon.14 }
%union.anon.14 = type { ptr }
%struct.anon.6 = type { ptr, ptr, %union.anon.7 }
%union.anon.7 = type { %struct.BitStructDecl }
%struct.BitStructDecl = type { ptr, ptr, i8 }
%struct.StructDecl = type { i32, ptr, i32, i16 }

@type_find_common_ancestor.left_types = internal global [512 x ptr] zeroinitializer, align 16
@.str.51 = private unnamed_addr constant [31 x i8] c"Struct type depth %d exceeded.\00", align 1

; Function Attrs: nounwind uwtable
define dso_local ptr @type_get_ptr(ptr noundef %0) #0 {
  %2 = alloca ptr, align 8
  store ptr %0, ptr %2, align 8
  %3 = load ptr, ptr %2, align 8
  %4 = call ptr @type_generate_ptr(ptr noundef %3, i1 noundef zeroext false)
  ret ptr %4
}

; Function Attrs: nounwind uwtable
define dso_local ptr @type_find_common_ancestor(ptr noundef %0, ptr noundef %1) #0 {
  %3 = alloca ptr, align 8
  %4 = alloca ptr, align 8
  %5 = alloca ptr, align 8
  %6 = alloca ptr, align 8
  %7 = alloca i32, align 4
  %8 = alloca ptr, align 8
  %9 = alloca ptr, align 8
  %10 = alloca i32, align 4
  store ptr %0, ptr %4, align 8
  store ptr %1, ptr %5, align 8
  %11 = load ptr, ptr %4, align 8
  %12 = load ptr, ptr %5, align 8
  %13 = icmp eq ptr %11, %12
  br i1 %13, label %14, label %16

14:                                               ; preds = %2
  %15 = load ptr, ptr %4, align 8
  store ptr %15, ptr %3, align 8
  br label %172

16:                                               ; preds = %2
  %17 = load ptr, ptr %4, align 8
  %18 = getelementptr inbounds %struct.Type_, ptr %17, i32 0, i32 1
  %19 = load ptr, ptr %18, align 8
  store ptr %19, ptr %4, align 8
  %20 = load ptr, ptr %5, align 8
  %21 = getelementptr inbounds %struct.Type_, ptr %20, i32 0, i32 1
  %22 = load ptr, ptr %21, align 8
  store ptr %22, ptr %5, align 8
  %23 = load ptr, ptr %4, align 8
  %24 = load ptr, ptr %5, align 8
  %25 = icmp eq ptr %23, %24
  br i1 %25, label %26, label %28

26:                                               ; preds = %16
  %27 = load ptr, ptr %4, align 8
  store ptr %27, ptr %3, align 8
  br label %172

28:                                               ; preds = %16
  %29 = load ptr, ptr %4, align 8
  %30 = getelementptr inbounds %struct.Type_, ptr %29, i32 0, i32 0
  %31 = load i32, ptr %30, align 8
  %32 = load ptr, ptr %5, align 8
  %33 = getelementptr inbounds %struct.Type_, ptr %32, i32 0, i32 0
  %34 = load i32, ptr %33, align 8
  %35 = icmp ne i32 %31, %34
  br i1 %35, label %36, label %37

36:                                               ; preds = %28
  store ptr null, ptr %3, align 8
  br label %172

37:                                               ; preds = %28
  %38 = load ptr, ptr %4, align 8
  %39 = getelementptr inbounds %struct.Type_, ptr %38, i32 0, i32 0
  %40 = load i32, ptr %39, align 8
  %41 = icmp eq i32 %40, 23
  br i1 %41, label %42, label %58

42:                                               ; preds = %37
  %43 = load ptr, ptr %4, align 8
  %44 = getelementptr inbounds %struct.Type_, ptr %43, i32 0, i32 7
  %45 = load ptr, ptr %44, align 8
  %46 = load ptr, ptr %5, align 8
  %47 = getelementptr inbounds %struct.Type_, ptr %46, i32 0, i32 7
  %48 = load ptr, ptr %47, align 8
  %49 = call ptr @type_find_common_ancestor(ptr noundef %45, ptr noundef %48)
  store ptr %49, ptr %6, align 8
  %50 = load ptr, ptr %6, align 8
  %51 = icmp ne ptr %50, null
  br i1 %51, label %52, label %55

52:                                               ; preds = %42
  %53 = load ptr, ptr %6, align 8
  %54 = call ptr @type_get_ptr(ptr noundef %53)
  br label %56

55:                                               ; preds = %42
  br label %56

56:                                               ; preds = %55, %52
  %57 = phi ptr [ %54, %52 ], [ null, %55 ]
  store ptr %57, ptr %3, align 8
  br label %172

58:                                               ; preds = %37
  %59 = load ptr, ptr %4, align 8
  %60 = getelementptr inbounds %struct.Type_, ptr %59, i32 0, i32 0
  %61 = load i32, ptr %60, align 8
  %62 = icmp ne i32 %61, 26
  br i1 %62, label %63, label %64

63:                                               ; preds = %58
  store ptr null, ptr %3, align 8
  br label %172

64:                                               ; preds = %58
  store i32 0, ptr %7, align 4
  br label %65

65:                                               ; preds = %105, %64
  %66 = load i32, ptr %7, align 4
  %67 = icmp slt i32 %66, 512
  br i1 %67, label %68, label %116

68:                                               ; preds = %65
  %69 = load ptr, ptr %4, align 8
  %70 = getelementptr inbounds %struct.Type_, ptr %69, i32 0, i32 7
  %71 = load ptr, ptr %70, align 8
  %72 = getelementptr inbounds %struct.Decl_, ptr %71, i32 0, i32 11
  %73 = getelementptr inbounds %struct.anon.6, ptr %72, i32 0, i32 2
  %74 = getelementptr inbounds %struct.StructDecl, ptr %73, i32 0, i32 1
  %75 = load ptr, ptr %74, align 8
  %76 = icmp ne ptr %75, null
  br i1 %76, label %78, label %77

77:                                               ; preds = %68
  br label %116

78:                                               ; preds = %68
  %79 = load ptr, ptr %4, align 8
  %80 = getelementptr inbounds %struct.Type_, ptr %79, i32 0, i32 7
  %81 = load ptr, ptr %80, align 8
  %82 = getelementptr inbounds %struct.Decl_, ptr %81, i32 0, i32 11
  %83 = getelementptr inbounds %struct.anon.6, ptr %82, i32 0, i32 2
  %84 = getelementptr inbounds %struct.StructDecl, ptr %83, i32 0, i32 1
  %85 = load ptr, ptr %84, align 8
  %86 = getelementptr inbounds ptr, ptr %85, i64 0
  %87 = load ptr, ptr %86, align 8
  store ptr %87, ptr %8, align 8
  %88 = load ptr, ptr %8, align 8
  %89 = getelementptr inbounds %struct.Decl_, ptr %88, i32 0, i32 3
  %90 = load i64, ptr %89, align 8
  %91 = and i64 %90, 127
  %92 = trunc i64 %91 to i32
  %93 = icmp ne i32 %92, 26
  br i1 %93, label %94, label %95

94:                                               ; preds = %78
  br label %116

95:                                               ; preds = %78
  %96 = load ptr, ptr %8, align 8
  %97 = getelementptr inbounds %struct.Decl_, ptr %96, i32 0, i32 10
  %98 = load ptr, ptr %97, align 8
  %99 = getelementptr inbounds %struct.Type_, ptr %98, i32 0, i32 1
  %100 = load ptr, ptr %99, align 8
  %101 = load ptr, ptr %5, align 8
  %102 = icmp eq ptr %100, %101
  br i1 %102, label %103, label %105

103:                                              ; preds = %95
  %104 = load ptr, ptr %5, align 8
  store ptr %104, ptr %3, align 8
  br label %172

105:                                              ; preds = %95
  %106 = load ptr, ptr %8, align 8
  %107 = getelementptr inbounds %struct.Decl_, ptr %106, i32 0, i32 10
  %108 = load ptr, ptr %107, align 8
  %109 = getelementptr inbounds %struct.Type_, ptr %108, i32 0, i32 1
  %110 = load ptr, ptr %109, align 8
  store ptr %110, ptr %4, align 8
  %111 = load ptr, ptr %4, align 8
  %112 = load i32, ptr %7, align 4
  %113 = add nsw i32 %112, 1
  store i32 %113, ptr %7, align 4
  %114 = sext i32 %112 to i64
  %115 = getelementptr inbounds [512 x ptr], ptr @type_find_common_ancestor.left_types, i64 0, i64 %114
  store ptr %111, ptr %115, align 8
  br label %65, !llvm.loop !26

116:                                              ; preds = %94, %77, %65
  %117 = load i32, ptr %7, align 4
  %118 = icmp eq i32 %117, 512
  br i1 %118, label %119, label %120

119:                                              ; preds = %116
  call void (ptr, ...) @error_exit(ptr noundef @.str.51, i32 noundef 512) #7
  unreachable

120:                                              ; preds = %116
  br label %121

121:                                              ; preds = %171, %120
  %122 = load ptr, ptr %5, align 8
  %123 = getelementptr inbounds %struct.Type_, ptr %122, i32 0, i32 7
  %124 = load ptr, ptr %123, align 8
  %125 = getelementptr inbounds %struct.Decl_, ptr %124, i32 0, i32 11
  %126 = getelementptr inbounds %struct.anon.6, ptr %125, i32 0, i32 2
  %127 = getelementptr inbounds %struct.StructDecl, ptr %126, i32 0, i32 1
  %128 = load ptr, ptr %127, align 8
  %129 = icmp ne ptr %128, null
  br i1 %129, label %131, label %130

130:                                              ; preds = %121
  store ptr null, ptr %3, align 8
  br label %172

131:                                              ; preds = %121
  %132 = load ptr, ptr %5, align 8
  %133 = getelementptr inbounds %struct.Type_, ptr %132, i32 0, i32 7
  %134 = load ptr, ptr %133, align 8
  %135 = getelementptr inbounds %struct.Decl_, ptr %134, i32 0, i32 11
  %136 = getelementptr inbounds %struct.anon.6, ptr %135, i32 0, i32 2
  %137 = getelementptr inbounds %struct.StructDecl, ptr %136, i32 0, i32 1
  %138 = load ptr, ptr %137, align 8
  %139 = getelementptr inbounds ptr, ptr %138, i64 0
  %140 = load ptr, ptr %139, align 8
  store ptr %140, ptr %9, align 8
  %141 = load ptr, ptr %9, align 8
  %142 = getelementptr inbounds %struct.Decl_, ptr %141, i32 0, i32 3
  %143 = load i64, ptr %142, align 8
  %144 = and i64 %143, 127
  %145 = trunc i64 %144 to i32
  %146 = icmp ne i32 %145, 26
  br i1 %146, label %147, label %148

147:                                              ; preds = %131
  store ptr null, ptr %3, align 8
  br label %172

148:                                              ; preds = %131
  %149 = load ptr, ptr %9, align 8
  %150 = getelementptr inbounds %struct.Decl_, ptr %149, i32 0, i32 10
  %151 = load ptr, ptr %150, align 8
  %152 = getelementptr inbounds %struct.Type_, ptr %151, i32 0, i32 1
  %153 = load ptr, ptr %152, align 8
  store ptr %153, ptr %5, align 8
  store i32 0, ptr %10, align 4
  br label %154

154:                                              ; preds = %168, %148
  %155 = load i32, ptr %10, align 4
  %156 = load i32, ptr %7, align 4
  %157 = icmp slt i32 %155, %156
  br i1 %157, label %158, label %171

158:                                              ; preds = %154
  %159 = load ptr, ptr %5, align 8
  %160 = load i32, ptr %10, align 4
  %161 = sext i32 %160 to i64
  %162 = getelementptr inbounds [512 x ptr], ptr @type_find_common_ancestor.left_types, i64 0, i64 %161
  %163 = load ptr, ptr %162, align 8
  %164 = icmp eq ptr %159, %163
  br i1 %164, label %165, label %167

165:                                              ; preds = %158
  %166 = load ptr, ptr %5, align 8
  store ptr %166, ptr %3, align 8
  br label %172

167:                                              ; preds = %158
  br label %168

168:                                              ; preds = %167
  %169 = load i32, ptr %10, align 4
  %170 = add nsw i32 %169, 1
  store i32 %170, ptr %10, align 4
  br label %154, !llvm.loop !27

171:                                              ; preds = %154
  br label %121

172:                                              ; preds = %165, %147, %130, %103, %63, %56, %36, %26, %14
  %173 = load ptr, ptr %3, align 8
  ret ptr %173
}