; Function Attrs: nounwind uwtable
define dso_local ptr @type_find_common_ancestor(ptr noundef readonly %0, ptr noundef readonly %1) local_unnamed_addr #0 {
  %3 = icmp eq ptr %0, %1
  br i1 %3, label %.loopexit58, label %4

4:                                                ; preds = %2
  %5 = getelementptr inbounds i8, ptr %0, i64 8
  %6 = load ptr, ptr %5, align 8
  %7 = getelementptr inbounds i8, ptr %1, i64 8
  %8 = load ptr, ptr %7, align 8
  %9 = icmp eq ptr %6, %8
  br i1 %9, label %.loopexit58, label %10

10:                                               ; preds = %4
  %11 = load i32, ptr %6, align 8
  %12 = load i32, ptr %8, align 8
  %.not = icmp eq i32 %11, %12
  br i1 %.not, label %13, label %.loopexit58

13:                                               ; preds = %10
  switch i32 %11, label %.loopexit58 [
    i32 23, label %14
    i32 26, label %.preheader60
  ]

14:                                               ; preds = %13
  %15 = getelementptr inbounds i8, ptr %6, i64 56
  %16 = load ptr, ptr %15, align 8
  %17 = getelementptr inbounds i8, ptr %8, i64 56
  %18 = load ptr, ptr %17, align 8
  %19 = tail call ptr @type_find_common_ancestor(ptr noundef %16, ptr noundef %18)
  %.not57 = icmp eq ptr %19, null
  br i1 %.not57, label %.loopexit58, label %20

20:                                               ; preds = %14
  %21 = tail call fastcc ptr @type_generate_ptr(ptr noundef nonnull %19, i1 noundef zeroext false)
  br label %.loopexit58

.preheader60:                                     ; preds = %13, %37
  %indvars.iv = phi i64 [ %indvars.iv.next, %37 ], [ 0, %13 ]
  %.03864 = phi ptr [ %35, %37 ], [ %6, %13 ]
  %22 = getelementptr inbounds i8, ptr %.03864, i64 56
  %23 = load ptr, ptr %22, align 8
  %24 = getelementptr inbounds i8, ptr %23, i64 104
  %25 = load ptr, ptr %24, align 8
  %.not53 = icmp eq ptr %25, null
  br i1 %.not53, label %39, label %26

26:                                               ; preds = %.preheader60
  %27 = load ptr, ptr %25, align 8
  %28 = getelementptr inbounds i8, ptr %27, i64 24
  %29 = load i64, ptr %28, align 8
  %30 = and i64 %29, 127
  %.not54 = icmp eq i64 %30, 26
  br i1 %.not54, label %31, label %39

31:                                               ; preds = %26
  %32 = getelementptr inbounds i8, ptr %27, i64 72
  %33 = load ptr, ptr %32, align 8
  %34 = getelementptr inbounds i8, ptr %33, i64 8
  %35 = load ptr, ptr %34, align 8
  %36 = icmp eq ptr %35, %8
  br i1 %36, label %.loopexit58, label %37

37:                                               ; preds = %31
  %indvars.iv.next = add i64 %indvars.iv, 1
  %38 = getelementptr inbounds [512 x ptr], ptr @type_find_common_ancestor.left_types, i64 0, i64 %indvars.iv
  store ptr %35, ptr %38, align 8
  %exitcond.not = icmp eq i64 %indvars.iv.next, 512
  br i1 %exitcond.not, label %.thread, label %.preheader60, !llvm.loop !27

39:                                               ; preds = %26, %.preheader60
  %40 = trunc i64 %indvars.iv to i32
  %41 = icmp eq i32 %40, 512
  br i1 %41, label %.thread, label %.preheader

.preheader:                                       ; preds = %39
  %42 = getelementptr inbounds i8, ptr %8, i64 56
  %43 = load ptr, ptr %42, align 8
  %44 = getelementptr inbounds i8, ptr %43, i64 104
  %45 = load ptr, ptr %44, align 8
  %.not5566 = icmp eq ptr %45, null
  br i1 %.not5566, label %.loopexit58, label %.lr.ph67

.lr.ph67:                                         ; preds = %.preheader
  %.not69 = icmp eq i32 %40, 0
  br i1 %.not69, label %.lr.ph67.split, label %.lr.ph67.split.us.preheader

.lr.ph67.split.us.preheader:                      ; preds = %.lr.ph67
  %wide.trip.count = and i64 %indvars.iv, 4294967295
  br label %.lr.ph67.split.us

.lr.ph67.split.us:                                ; preds = %.lr.ph67.split.us.preheader, %..loopexit_crit_edge.us
  %46 = phi ptr [ %63, %..loopexit_crit_edge.us ], [ %45, %.lr.ph67.split.us.preheader ]
  %47 = load ptr, ptr %46, align 8
  %48 = getelementptr inbounds i8, ptr %47, i64 24
  %49 = load i64, ptr %48, align 8
  %50 = and i64 %49, 127
  %.not56.us = icmp eq i64 %50, 26
  br i1 %.not56.us, label %.lr.ph.us, label %.loopexit58

.lr.ph.us:                                        ; preds = %.lr.ph67.split.us
  %51 = getelementptr inbounds i8, ptr %47, i64 72
  %52 = load ptr, ptr %51, align 8
  %53 = getelementptr inbounds i8, ptr %52, i64 8
  %54 = load ptr, ptr %53, align 8
  br label %56

55:                                               ; preds = %56
  %indvars.iv.next75 = add nuw nsw i64 %indvars.iv74, 1
  %exitcond77.not = icmp eq i64 %indvars.iv.next75, %wide.trip.count
  br i1 %exitcond77.not, label %..loopexit_crit_edge.us, label %56, !llvm.loop !28

56:                                               ; preds = %.lr.ph.us, %55
  %indvars.iv74 = phi i64 [ 0, %.lr.ph.us ], [ %indvars.iv.next75, %55 ]
  %57 = getelementptr inbounds [512 x ptr], ptr @type_find_common_ancestor.left_types, i64 0, i64 %indvars.iv74
  %58 = load ptr, ptr %57, align 8
  %59 = icmp eq ptr %54, %58
  br i1 %59, label %.loopexit58, label %55

..loopexit_crit_edge.us:                          ; preds = %55
  %60 = getelementptr inbounds i8, ptr %54, i64 56
  %61 = load ptr, ptr %60, align 8
  %62 = getelementptr inbounds i8, ptr %61, i64 104
  %63 = load ptr, ptr %62, align 8
  %.not55.us = icmp eq ptr %63, null
  br i1 %.not55.us, label %.loopexit58, label %.lr.ph67.split.us

.thread:                                          ; preds = %37, %39
  tail call void (ptr, ...) @error_exit(ptr noundef nonnull @.str.51, i32 noundef 512) #13
  unreachable

.lr.ph67.split:                                   ; preds = %.lr.ph67, %.loopexit
  %64 = phi ptr [ %76, %.loopexit ], [ %45, %.lr.ph67 ]
  %65 = load ptr, ptr %64, align 8
  %66 = getelementptr inbounds i8, ptr %65, i64 24
  %67 = load i64, ptr %66, align 8
  %68 = and i64 %67, 127
  %.not56 = icmp eq i64 %68, 26
  br i1 %.not56, label %.loopexit, label %.loopexit58

.loopexit:                                        ; preds = %.lr.ph67.split
  %69 = getelementptr inbounds i8, ptr %65, i64 72
  %70 = load ptr, ptr %69, align 8
  %71 = getelementptr inbounds i8, ptr %70, i64 8
  %72 = load ptr, ptr %71, align 8
  %73 = getelementptr inbounds i8, ptr %72, i64 56
  %74 = load ptr, ptr %73, align 8
  %75 = getelementptr inbounds i8, ptr %74, i64 104
  %76 = load ptr, ptr %75, align 8
  %.not55 = icmp eq ptr %76, null
  br i1 %.not55, label %.loopexit58, label %.lr.ph67.split

.loopexit58:                                      ; preds = %31, %..loopexit_crit_edge.us, %.lr.ph67.split.us, %56, %.loopexit, %.lr.ph67.split, %.preheader, %13, %20, %14, %10, %4, %2
  %.037 = phi ptr [ %0, %2 ], [ %6, %4 ], [ null, %10 ], [ %21, %20 ], [ null, %14 ], [ null, %13 ], [ null, %.preheader ], [ null, %.lr.ph67.split ], [ null, %.loopexit ], [ %54, %56 ], [ null, %.lr.ph67.split.us ], [ null, %..loopexit_crit_edge.us ], [ %8, %31 ]
  ret ptr %.037
}